target datalayout = "e-m:e-p270:32:32-p271:32:32-p272:64:64-i64:64-i128:128-f80:128-n8:16:32:64-S128"
target triple = "x86_64-pc-linux-gnu"

%union.pthread_mutex_t = type { %struct.__pthread_mutex_s }
%struct.__pthread_mutex_s = type { i32, i32, i32, i32, i32, i16, i16, %struct.__pthread_internal_list }
%struct.__pthread_internal_list = type { ptr, ptr }
%struct.repository = type { ptr, ptr, ptr, ptr, ptr, %struct.strmap, %struct.strmap, %struct.repo_path_cache, ptr, ptr, ptr, ptr, %struct.repo_settings, ptr, ptr, ptr, ptr, ptr, ptr, i32, i32, i32, ptr, ptr, i32, i32, i8 }
%struct.strmap = type { %struct.hashmap, ptr, i8 }
%struct.hashmap = type { ptr, ptr, ptr, i32, i32, i32, i32, i8 }
%struct.repo_path_cache = type { ptr, ptr, ptr, ptr, ptr, ptr, ptr }
%struct.repo_settings = type { i32, i32, i32, i32, i32, i32, i32, i32, i32, i32, i32, i32, ptr, i32, i32, i32, i32, i32, i32, i32, i64, i64, i64 }
%struct.raw_object_store = type { ptr, ptr, ptr, i32, ptr, ptr, i8, %union.pthread_mutex_t, ptr, i8, ptr, ptr, %struct.list_head, %struct.anon, %struct.hashmap, i64, i8 }
%struct.list_head = type { ptr, ptr }
%struct.anon = type { ptr, i32 }
%struct.object_directory = type { ptr, [8 x i32], ptr, ptr, i32, i32, ptr }

@the_repository = external global ptr, align 8

; Function Attrs: nounwind uwtable
define dso_local ptr @set_temporary_primary_odb(ptr noundef %0, i32 noundef %1) #0 {
  %3 = alloca ptr, align 8
  %4 = alloca i32, align 4
  %5 = alloca ptr, align 8
  store ptr %0, ptr %3, align 8, !tbaa !12
  store i32 %1, ptr %4, align 4, !tbaa !43
  call void @llvm.lifetime.start.p0(i64 8, ptr %5) #14
  %6 = load ptr, ptr @the_repository, align 8, !tbaa !19
  call void @prepare_alt_odb(ptr noundef %6)
  %7 = call ptr @xcalloc(i64 noundef 1, i64 noundef 72)
  store ptr %7, ptr %5, align 8, !tbaa !78
  %8 = load ptr, ptr %3, align 8, !tbaa !12
  %9 = call ptr @xstrdup(ptr noundef %8)
  %10 = load ptr, ptr %5, align 8, !tbaa !78
  %11 = getelementptr inbounds nuw %struct.object_directory, ptr %10, i32 0, i32 6
  store ptr %9, ptr %11, align 8, !tbaa !79
  %12 = load ptr, ptr %5, align 8, !tbaa !78
  %13 = getelementptr inbounds nuw %struct.object_directory, ptr %12, i32 0, i32 4
  store i32 1, ptr %13, align 8, !tbaa !95
  %14 = load i32, ptr %4, align 4, !tbaa !43
  %15 = load ptr, ptr %5, align 8, !tbaa !78
  %16 = getelementptr inbounds nuw %struct.object_directory, ptr %15, i32 0, i32 5
  store i32 %14, ptr %16, align 4, !tbaa !96
  %17 = load ptr, ptr @the_repository, align 8, !tbaa !19
  %18 = getelementptr inbounds nuw %struct.repository, ptr %17, i32 0, i32 2
  %19 = load ptr, ptr %18, align 8, !tbaa !64
  %20 = getelementptr inbounds nuw %struct.raw_object_store, ptr %19, i32 0, i32 0
  %21 = load ptr, ptr %20, align 8, !tbaa !65
  %22 = load ptr, ptr %5, align 8, !tbaa !78
  %23 = getelementptr inbounds nuw %struct.object_directory, ptr %22, i32 0, i32 0
  store ptr %21, ptr %23, align 8, !tbaa !97
  %24 = load ptr, ptr %5, align 8, !tbaa !78
  %25 = load ptr, ptr @the_repository, align 8, !tbaa !19
  %26 = getelementptr inbounds nuw %struct.repository, ptr %25, i32 0, i32 2
  %27 = load ptr, ptr %26, align 8, !tbaa !64
  %28 = getelementptr inbounds nuw %struct.raw_object_store, ptr %27, i32 0, i32 0
  store ptr %24, ptr %28, align 8, !tbaa !65
  %29 = load ptr, ptr %5, align 8, !tbaa !78
  %30 = getelementptr inbounds nuw %struct.object_directory, ptr %29, i32 0, i32 0
  %31 = load ptr, ptr %30, align 8, !tbaa !97
  call void @llvm.lifetime.end.p0(i64 8, ptr %5) #14
  ret ptr %31
}