; Function Attrs: nounwind uwtable
define dso_local ptr @set_temporary_primary_odb(ptr noundef %0, i32 noundef %1) local_unnamed_addr #1 {
  %3 = load ptr, ptr @the_repository, align 8, !tbaa !9
  tail call void @prepare_alt_odb(ptr noundef %3)
  %4 = tail call ptr @xcalloc(i64 noundef 1, i64 noundef 72) #27
  %5 = tail call ptr @xstrdup(ptr noundef %0) #27
  %6 = getelementptr inbounds nuw i8, ptr %4, i64 64
  store ptr %5, ptr %6, align 8, !tbaa !68
  %7 = getelementptr inbounds nuw i8, ptr %4, i64 56
  store i32 1, ptr %7, align 8, !tbaa !91
  %8 = getelementptr inbounds nuw i8, ptr %4, i64 60
  store i32 %1, ptr %8, align 4, !tbaa !92
  %9 = load ptr, ptr @the_repository, align 8, !tbaa !9
  %10 = getelementptr inbounds nuw i8, ptr %9, i64 16
  %11 = load ptr, ptr %10, align 8, !tbaa !54
  %12 = load ptr, ptr %11, align 8, !tbaa !55
  store ptr %12, ptr %4, align 8, !tbaa !88
  store ptr %4, ptr %11, align 8, !tbaa !55
  ret ptr %12
}